; Function Attrs: mustprogress uwtable
define hidden void @_ZN6google8protobuf8compiler4java17ClassNameResolver12GetClassNameB5cxx11EPKNS0_17ServiceDescriptorEb(ptr noalias sret(%"class.std::__cxx11::basic_string") align 8 %agg.result, ptr noundef nonnull align 8 dereferenceable(112) %this, ptr noundef readonly captures(none) %descriptor, i1 noundef zeroext %immutable) local_unnamed_addr #3 align 2 personality ptr @__gxx_personality_v0 {
entry:
  %ref.tmp.i = alloca %"class.std::__cxx11::basic_string", align 8
  call void @llvm.lifetime.start.p0(i64 32, ptr nonnull %ref.tmp.i)
  call fastcc void @_ZN6google8protobuf8compiler4java12_GLOBAL__N_123ClassNameWithoutPackageB5cxx11EPKNS0_17ServiceDescriptorEb(ptr noalias align 8 %ref.tmp.i, ptr noundef readonly %descriptor)
  %call.i = call { i64, ptr } @_ZNKSt7__cxx1112basic_stringIcSt11char_traitsIcESaIcEEcvSt17basic_string_viewIcS2_EEv(ptr noundef nonnull align 8 dereferenceable(32) %ref.tmp.i) #18, !noalias !16
  %file_.i.i = getelementptr inbounds nuw i8, ptr %descriptor, i64 16
  %0 = load ptr, ptr %file_.i.i, align 8, !noalias !16
  %options_.i.i.i.i = getelementptr inbounds nuw i8, ptr %0, i64 128
  %1 = load ptr, ptr %options_.i.i.i.i, align 8, !noalias !16
  %java_multiple_files_.i.i.i.i.i = getelementptr inbounds nuw i8, ptr %1, i64 160
  %2 = load i8, ptr %java_multiple_files_.i.i.i.i.i, align 8, !noalias !16
  %tobool.i.i.i.i.i = trunc i8 %2 to i1
  %3 = extractvalue { i64, ptr } %call.i, 1
  %4 = extractvalue { i64, ptr } %call.i, 0
  invoke void @_ZN6google8protobuf8compiler4java17ClassNameResolver16GetClassFullNameB5cxx11ESt17basic_string_viewIcSt11char_traitsIcEEPKNS0_14FileDescriptorEbbb(ptr sret(%"class.std::__cxx11::basic_string") align 8 %agg.result, ptr noundef nonnull align 8 dereferenceable(112) %this, i64 %4, ptr %3, ptr noundef nonnull %0, i1 noundef zeroext %immutable, i1 noundef zeroext %tobool.i.i.i.i.i, i1 noundef zeroext false)
          to label %_ZN6google8protobuf8compiler4java17ClassNameResolver12GetClassNameB5cxx11EPKNS0_17ServiceDescriptorEbb.exit unwind label %lpad.i

lpad.i:                                           ; preds = %entry
  %5 = landingpad { ptr, i32 }
          cleanup
  call void @_ZNSt7__cxx1112basic_stringIcSt11char_traitsIcESaIcEED1Ev(ptr noundef nonnull align 8 dereferenceable(32) %ref.tmp.i) #18
  resume { ptr, i32 } %5

_ZN6google8protobuf8compiler4java17ClassNameResolver12GetClassNameB5cxx11EPKNS0_17ServiceDescriptorEbb.exit: ; preds = %entry
  call void @_ZNSt7__cxx1112basic_stringIcSt11char_traitsIcESaIcEED1Ev(ptr noundef nonnull align 8 dereferenceable(32) %ref.tmp.i) #18
  call void @llvm.lifetime.end.p0(i64 32, ptr nonnull %ref.tmp.i)
  ret void
}